target datalayout = "e-m:e-p270:32:32-p271:32:32-p272:64:64-i64:64-i128:128-f80:128-n8:16:32:64-S128"
target triple = "x86_64-pc-linux-gnu"

%struct.lua_State = type { i8, i8, i8, i8, i8, i8, i8, ptr, ptr, ptr, ptr, ptr, ptr, ptr, ptr, i32, i32, i16, i16, i32, ptr, ptr, ptr, ptr, ptr }
%struct.lua_TValue = type { %union.Value, [1 x i32], i32 }
%union.Value = type { ptr }
%struct.LuaTable = type { i8, i8, i8, i8, i8, i8, i8, i8, i32, %union.anon.2, ptr, ptr, ptr, ptr }
%union.anon.2 = type { i32 }
%struct.GCheader = type { i8, i8, i8 }

; Function Attrs: mustprogress uwtable
define internal void @_ZL12moveelementsP9lua_Stateiiiii(ptr noundef %0, i32 noundef %1, i32 noundef %2, i32 noundef %3, i32 noundef %4, i32 noundef %5) #0 {
  %7 = alloca ptr, align 8
  %8 = alloca i32, align 4
  %9 = alloca i32, align 4
  %10 = alloca i32, align 4
  %11 = alloca i32, align 4
  %12 = alloca i32, align 4
  %13 = alloca ptr, align 8
  %14 = alloca ptr, align 8
  %15 = alloca i32, align 4
  %16 = alloca ptr, align 8
  %17 = alloca ptr, align 8
  %18 = alloca i32, align 4
  %19 = alloca ptr, align 8
  %20 = alloca ptr, align 8
  %21 = alloca ptr, align 8
  %22 = alloca ptr, align 8
  %23 = alloca i32, align 4
  %24 = alloca ptr, align 8
  %25 = alloca ptr, align 8
  %26 = alloca ptr, align 8
  %27 = alloca ptr, align 8
  %28 = alloca i32, align 4
  %29 = alloca i32, align 4
  store ptr %0, ptr %7, align 8, !tbaa !4
  store i32 %1, ptr %8, align 4, !tbaa !23
  store i32 %2, ptr %9, align 4, !tbaa !23
  store i32 %3, ptr %10, align 4, !tbaa !23
  store i32 %4, ptr %11, align 4, !tbaa !23
  store i32 %5, ptr %12, align 4, !tbaa !23
  call void @llvm.lifetime.start.p0(i64 8, ptr %13) #7
  %30 = load ptr, ptr %7, align 8, !tbaa !4
  %31 = getelementptr inbounds nuw %struct.lua_State, ptr %30, i32 0, i32 8
  %32 = load ptr, ptr %31, align 8, !tbaa !9
  %33 = load i32, ptr %8, align 4, !tbaa !23
  %34 = sub nsw i32 %33, 1
  %35 = sext i32 %34 to i64
  %36 = getelementptr inbounds %struct.lua_TValue, ptr %32, i64 %35
  %37 = getelementptr inbounds nuw %struct.lua_TValue, ptr %36, i32 0, i32 0
  %38 = load ptr, ptr %37, align 8, !tbaa !21
  store ptr %38, ptr %13, align 8, !tbaa !22
  call void @llvm.lifetime.start.p0(i64 8, ptr %14) #7
  %39 = load ptr, ptr %7, align 8, !tbaa !4
  %40 = getelementptr inbounds nuw %struct.lua_State, ptr %39, i32 0, i32 8
  %41 = load ptr, ptr %40, align 8, !tbaa !9
  %42 = load i32, ptr %9, align 4, !tbaa !23
  %43 = sub nsw i32 %42, 1
  %44 = sext i32 %43 to i64
  %45 = getelementptr inbounds %struct.lua_TValue, ptr %41, i64 %44
  %46 = getelementptr inbounds nuw %struct.lua_TValue, ptr %45, i32 0, i32 0
  %47 = load ptr, ptr %46, align 8, !tbaa !21
  store ptr %47, ptr %14, align 8, !tbaa !22
  %48 = load ptr, ptr %14, align 8, !tbaa !22
  %49 = getelementptr inbounds nuw %struct.LuaTable, ptr %48, i32 0, i32 4
  %50 = load i8, ptr %49, align 4, !tbaa !53
  %51 = icmp ne i8 %50, 0
  br i1 %51, label %52, label %54

52:                                               ; preds = %6
  %53 = load ptr, ptr %7, align 8, !tbaa !4
  call void @_Z18luaG_readonlyerrorP9lua_State(ptr noundef %53) #8
  unreachable

54:                                               ; preds = %6
  call void @llvm.lifetime.start.p0(i64 4, ptr %15) #7
  %55 = load i32, ptr %11, align 4, !tbaa !23
  %56 = load i32, ptr %10, align 4, !tbaa !23
  %57 = sub nsw i32 %55, %56
  %58 = add nsw i32 %57, 1
  store i32 %58, ptr %15, align 4, !tbaa !23
  %59 = load i32, ptr %10, align 4, !tbaa !23
  %60 = sub nsw i32 %59, 1
  %61 = load ptr, ptr %13, align 8, !tbaa !22
  %62 = getelementptr inbounds nuw %struct.LuaTable, ptr %61, i32 0, i32 8
  %63 = load i32, ptr %62, align 8, !tbaa !24
  %64 = icmp ult i32 %60, %63
  br i1 %64, label %65, label %186

65:                                               ; preds = %54
  %66 = load i32, ptr %12, align 4, !tbaa !23
  %67 = sub nsw i32 %66, 1
  %68 = load ptr, ptr %14, align 8, !tbaa !22
  %69 = getelementptr inbounds nuw %struct.LuaTable, ptr %68, i32 0, i32 8
  %70 = load i32, ptr %69, align 8, !tbaa !24
  %71 = icmp ult i32 %67, %70
  br i1 %71, label %72, label %186

72:                                               ; preds = %65
  %73 = load i32, ptr %10, align 4, !tbaa !23
  %74 = sub nsw i32 %73, 1
  %75 = load i32, ptr %15, align 4, !tbaa !23
  %76 = add nsw i32 %74, %75
  %77 = load ptr, ptr %13, align 8, !tbaa !22
  %78 = getelementptr inbounds nuw %struct.LuaTable, ptr %77, i32 0, i32 8
  %79 = load i32, ptr %78, align 8, !tbaa !24
  %80 = icmp ule i32 %76, %79
  br i1 %80, label %81, label %186

81:                                               ; preds = %72
  %82 = load i32, ptr %12, align 4, !tbaa !23
  %83 = sub nsw i32 %82, 1
  %84 = load i32, ptr %15, align 4, !tbaa !23
  %85 = add nsw i32 %83, %84
  %86 = load ptr, ptr %14, align 8, !tbaa !22
  %87 = getelementptr inbounds nuw %struct.LuaTable, ptr %86, i32 0, i32 8
  %88 = load i32, ptr %87, align 8, !tbaa !24
  %89 = icmp ule i32 %85, %88
  br i1 %89, label %90, label %186

90:                                               ; preds = %81
  call void @llvm.lifetime.start.p0(i64 8, ptr %16) #7
  %91 = load ptr, ptr %13, align 8, !tbaa !22
  %92 = getelementptr inbounds nuw %struct.LuaTable, ptr %91, i32 0, i32 11
  %93 = load ptr, ptr %92, align 8, !tbaa !27
  store ptr %93, ptr %16, align 8, !tbaa !28
  call void @llvm.lifetime.start.p0(i64 8, ptr %17) #7
  %94 = load ptr, ptr %14, align 8, !tbaa !22
  %95 = getelementptr inbounds nuw %struct.LuaTable, ptr %94, i32 0, i32 11
  %96 = load ptr, ptr %95, align 8, !tbaa !27
  store ptr %96, ptr %17, align 8, !tbaa !28
  %97 = load i32, ptr %12, align 4, !tbaa !23
  %98 = load i32, ptr %11, align 4, !tbaa !23
  %99 = icmp sgt i32 %97, %98
  br i1 %99, label %112, label %100

100:                                              ; preds = %90
  %101 = load i32, ptr %12, align 4, !tbaa !23
  %102 = load i32, ptr %10, align 4, !tbaa !23
  %103 = icmp sle i32 %101, %102
  br i1 %103, label %112, label %104

104:                                              ; preds = %100
  %105 = load i32, ptr %9, align 4, !tbaa !23
  %106 = load i32, ptr %8, align 4, !tbaa !23
  %107 = icmp ne i32 %105, %106
  br i1 %107, label %108, label %141

108:                                              ; preds = %104
  %109 = load ptr, ptr %14, align 8, !tbaa !22
  %110 = load ptr, ptr %13, align 8, !tbaa !22
  %111 = icmp ne ptr %109, %110
  br i1 %111, label %112, label %141

112:                                              ; preds = %108, %100, %90
  call void @llvm.lifetime.start.p0(i64 4, ptr %18) #7
  store i32 0, ptr %18, align 4, !tbaa !23
  br label %113

113:                                              ; preds = %137, %112
  %114 = load i32, ptr %18, align 4, !tbaa !23
  %115 = load i32, ptr %15, align 4, !tbaa !23
  %116 = icmp slt i32 %114, %115
  br i1 %116, label %118, label %117

117:                                              ; preds = %113
  call void @llvm.lifetime.end.p0(i64 4, ptr %18) #7
  br label %140

118:                                              ; preds = %113
  call void @llvm.lifetime.start.p0(i64 8, ptr %19) #7
  %119 = load ptr, ptr %16, align 8, !tbaa !28
  %120 = load i32, ptr %10, align 4, !tbaa !23
  %121 = load i32, ptr %18, align 4, !tbaa !23
  %122 = add nsw i32 %120, %121
  %123 = sub nsw i32 %122, 1
  %124 = sext i32 %123 to i64
  %125 = getelementptr inbounds %struct.lua_TValue, ptr %119, i64 %124
  store ptr %125, ptr %19, align 8, !tbaa !28
  call void @llvm.lifetime.start.p0(i64 8, ptr %20) #7
  %126 = load ptr, ptr %17, align 8, !tbaa !28
  %127 = load i32, ptr %12, align 4, !tbaa !23
  %128 = load i32, ptr %18, align 4, !tbaa !23
  %129 = add nsw i32 %127, %128
  %130 = sub nsw i32 %129, 1
  %131 = sext i32 %130 to i64
  %132 = getelementptr inbounds %struct.lua_TValue, ptr %126, i64 %131
  store ptr %132, ptr %20, align 8, !tbaa !28
  call void @llvm.lifetime.start.p0(i64 8, ptr %21) #7
  %133 = load ptr, ptr %19, align 8, !tbaa !28
  store ptr %133, ptr %21, align 8, !tbaa !28
  call void @llvm.lifetime.start.p0(i64 8, ptr %22) #7
  %134 = load ptr, ptr %20, align 8, !tbaa !28
  store ptr %134, ptr %22, align 8, !tbaa !28
  %135 = load ptr, ptr %21, align 8, !tbaa !28
  %136 = load ptr, ptr %22, align 8, !tbaa !28
  call void @llvm.memcpy.p0.p0.i64(ptr align 8 %136, ptr align 8 %135, i64 16, i1 false), !tbaa.struct !30
  call void @llvm.lifetime.end.p0(i64 8, ptr %22) #7
  call void @llvm.lifetime.end.p0(i64 8, ptr %21) #7
  call void @llvm.lifetime.end.p0(i64 8, ptr %20) #7
  call void @llvm.lifetime.end.p0(i64 8, ptr %19) #7
  br label %137

137:                                              ; preds = %118
  %138 = load i32, ptr %18, align 4, !tbaa !23
  %139 = add nsw i32 %138, 1
  store i32 %139, ptr %18, align 4, !tbaa !23
  br label %113, !llvm.loop !63

140:                                              ; preds = %117
  br label %171

141:                                              ; preds = %108, %104
  call void @llvm.lifetime.start.p0(i64 4, ptr %23) #7
  %142 = load i32, ptr %15, align 4, !tbaa !23
  %143 = sub nsw i32 %142, 1
  store i32 %143, ptr %23, align 4, !tbaa !23
  br label %144

144:                                              ; preds = %167, %141
  %145 = load i32, ptr %23, align 4, !tbaa !23
  %146 = icmp sge i32 %145, 0
  br i1 %146, label %148, label %147

147:                                              ; preds = %144
  call void @llvm.lifetime.end.p0(i64 4, ptr %23) #7
  br label %170

148:                                              ; preds = %144
  call void @llvm.lifetime.start.p0(i64 8, ptr %24) #7
  %149 = load ptr, ptr %16, align 8, !tbaa !28
  %150 = load i32, ptr %10, align 4, !tbaa !23
  %151 = load i32, ptr %23, align 4, !tbaa !23
  %152 = add nsw i32 %150, %151
  %153 = sub nsw i32 %152, 1
  %154 = sext i32 %153 to i64
  %155 = getelementptr inbounds %struct.lua_TValue, ptr %149, i64 %154
  store ptr %155, ptr %24, align 8, !tbaa !28
  call void @llvm.lifetime.start.p0(i64 8, ptr %25) #7
  %156 = load ptr, ptr %17, align 8, !tbaa !28
  %157 = load i32, ptr %12, align 4, !tbaa !23
  %158 = load i32, ptr %23, align 4, !tbaa !23
  %159 = add nsw i32 %157, %158
  %160 = sub nsw i32 %159, 1
  %161 = sext i32 %160 to i64
  %162 = getelementptr inbounds %struct.lua_TValue, ptr %156, i64 %161
  store ptr %162, ptr %25, align 8, !tbaa !28
  call void @llvm.lifetime.start.p0(i64 8, ptr %26) #7
  %163 = load ptr, ptr %24, align 8, !tbaa !28
  store ptr %163, ptr %26, align 8, !tbaa !28
  call void @llvm.lifetime.start.p0(i64 8, ptr %27) #7
  %164 = load ptr, ptr %25, align 8, !tbaa !28
  store ptr %164, ptr %27, align 8, !tbaa !28
  %165 = load ptr, ptr %26, align 8, !tbaa !28
  %166 = load ptr, ptr %27, align 8, !tbaa !28
  call void @llvm.memcpy.p0.p0.i64(ptr align 8 %166, ptr align 8 %165, i64 16, i1 false), !tbaa.struct !30
  call void @llvm.lifetime.end.p0(i64 8, ptr %27) #7
  call void @llvm.lifetime.end.p0(i64 8, ptr %26) #7
  call void @llvm.lifetime.end.p0(i64 8, ptr %25) #7
  call void @llvm.lifetime.end.p0(i64 8, ptr %24) #7
  br label %167

167:                                              ; preds = %148
  %168 = load i32, ptr %23, align 4, !tbaa !23
  %169 = add nsw i32 %168, -1
  store i32 %169, ptr %23, align 4, !tbaa !23
  br label %144, !llvm.loop !64

170:                                              ; preds = %147
  br label %171

171:                                              ; preds = %170, %140
  %172 = load ptr, ptr %14, align 8, !tbaa !22
  %173 = getelementptr inbounds %struct.LuaTable, ptr %172, i64 0
  %174 = getelementptr inbounds nuw %struct.GCheader, ptr %173, i32 0, i32 1
  %175 = load i8, ptr %174, align 1, !tbaa !21
  %176 = zext i8 %175 to i32
  %177 = and i32 %176, 4
  %178 = icmp ne i32 %177, 0
  br i1 %178, label %179, label %185

179:                                              ; preds = %171
  %180 = load ptr, ptr %7, align 8, !tbaa !4
  %181 = load ptr, ptr %14, align 8, !tbaa !22
  %182 = getelementptr inbounds %struct.LuaTable, ptr %181, i64 0
  %183 = load ptr, ptr %14, align 8, !tbaa !22
  %184 = getelementptr inbounds nuw %struct.LuaTable, ptr %183, i32 0, i32 13
  call void @_Z16luaC_barrierbackP9lua_StateP8GCObjectPS2_(ptr noundef %180, ptr noundef %182, ptr noundef %184)
  br label %185

185:                                              ; preds = %179, %171
  call void @llvm.lifetime.end.p0(i64 8, ptr %17) #7
  call void @llvm.lifetime.end.p0(i64 8, ptr %16) #7
  br label %244

186:                                              ; preds = %81, %72, %65, %54
  %187 = load i32, ptr %12, align 4, !tbaa !23
  %188 = load i32, ptr %11, align 4, !tbaa !23
  %189 = icmp sgt i32 %187, %188
  br i1 %189, label %198, label %190

190:                                              ; preds = %186
  %191 = load i32, ptr %12, align 4, !tbaa !23
  %192 = load i32, ptr %10, align 4, !tbaa !23
  %193 = icmp sle i32 %191, %192
  br i1 %193, label %198, label %194

194:                                              ; preds = %190
  %195 = load ptr, ptr %14, align 8, !tbaa !22
  %196 = load ptr, ptr %13, align 8, !tbaa !22
  %197 = icmp ne ptr %195, %196
  br i1 %197, label %198, label %220

198:                                              ; preds = %194, %190, %186
  call void @llvm.lifetime.start.p0(i64 4, ptr %28) #7
  store i32 0, ptr %28, align 4, !tbaa !23
  br label %199

199:                                              ; preds = %216, %198
  %200 = load i32, ptr %28, align 4, !tbaa !23
  %201 = load i32, ptr %15, align 4, !tbaa !23
  %202 = icmp slt i32 %200, %201
  br i1 %202, label %204, label %203

203:                                              ; preds = %199
  call void @llvm.lifetime.end.p0(i64 4, ptr %28) #7
  br label %219

204:                                              ; preds = %199
  %205 = load ptr, ptr %7, align 8, !tbaa !4
  %206 = load i32, ptr %8, align 4, !tbaa !23
  %207 = load i32, ptr %10, align 4, !tbaa !23
  %208 = load i32, ptr %28, align 4, !tbaa !23
  %209 = add nsw i32 %207, %208
  %210 = call noundef i32 @_Z11lua_rawgetiP9lua_Stateii(ptr noundef %205, i32 noundef %206, i32 noundef %209)
  %211 = load ptr, ptr %7, align 8, !tbaa !4
  %212 = load i32, ptr %9, align 4, !tbaa !23
  %213 = load i32, ptr %12, align 4, !tbaa !23
  %214 = load i32, ptr %28, align 4, !tbaa !23
  %215 = add nsw i32 %213, %214
  call void @_Z11lua_rawsetiP9lua_Stateii(ptr noundef %211, i32 noundef %212, i32 noundef %215)
  br label %216

216:                                              ; preds = %204
  %217 = load i32, ptr %28, align 4, !tbaa !23
  %218 = add nsw i32 %217, 1
  store i32 %218, ptr %28, align 4, !tbaa !23
  br label %199, !llvm.loop !65

219:                                              ; preds = %203
  br label %243

220:                                              ; preds = %194
  call void @llvm.lifetime.start.p0(i64 4, ptr %29) #7
  %221 = load i32, ptr %15, align 4, !tbaa !23
  %222 = sub nsw i32 %221, 1
  store i32 %222, ptr %29, align 4, !tbaa !23
  br label %223

223:                                              ; preds = %239, %220
  %224 = load i32, ptr %29, align 4, !tbaa !23
  %225 = icmp sge i32 %224, 0
  br i1 %225, label %227, label %226

226:                                              ; preds = %223
  call void @llvm.lifetime.end.p0(i64 4, ptr %29) #7
  br label %242

227:                                              ; preds = %223
  %228 = load ptr, ptr %7, align 8, !tbaa !4
  %229 = load i32, ptr %8, align 4, !tbaa !23
  %230 = load i32, ptr %10, align 4, !tbaa !23
  %231 = load i32, ptr %29, align 4, !tbaa !23
  %232 = add nsw i32 %230, %231
  %233 = call noundef i32 @_Z11lua_rawgetiP9lua_Stateii(ptr noundef %228, i32 noundef %229, i32 noundef %232)
  %234 = load ptr, ptr %7, align 8, !tbaa !4
  %235 = load i32, ptr %9, align 4, !tbaa !23
  %236 = load i32, ptr %12, align 4, !tbaa !23
  %237 = load i32, ptr %29, align 4, !tbaa !23
  %238 = add nsw i32 %236, %237
  call void @_Z11lua_rawsetiP9lua_Stateii(ptr noundef %234, i32 noundef %235, i32 noundef %238)
  br label %239

239:                                              ; preds = %227
  %240 = load i32, ptr %29, align 4, !tbaa !23
  %241 = add nsw i32 %240, -1
  store i32 %241, ptr %29, align 4, !tbaa !23
  br label %223, !llvm.loop !66

242:                                              ; preds = %226
  br label %243

243:                                              ; preds = %242, %219
  br label %244

244:                                              ; preds = %243, %185
  call void @llvm.lifetime.end.p0(i64 4, ptr %15) #7
  call void @llvm.lifetime.end.p0(i64 8, ptr %14) #7
  call void @llvm.lifetime.end.p0(i64 8, ptr %13) #7
  ret void
}